Certificate:
    Data:
        Version: 3 (0x2)
        Serial Number: 2 (0x2)
    Signature Algorithm: sha1WithRSAEncryption
        Issuer: C=FR, ST=Radius, L=Somewhere, O=Example Inc./emailAddress=admin@example.com, CN=Example Certificate Authority
        Validity
            Not Before: Jun 25 14:55:45 2012 GMT
            Not After : Jun 25 14:55:45 2013 GMT
        Subject: C=FR, ST=Radius, O=Example Inc., CN=maxence/emailAddress=user@example.com
        Subject Public Key Info:
            Public Key Algorithm: rsaEncryption
                Public-Key: (2048 bit)
                Modulus:
                    00:a0:37:61:93:44:e4:db:1f:01:15:81:25:ef:40:
                    ce:f3:e2:ff:dd:f7:eb:e5:ce:08:d4:a6:11:dd:22:
                    d8:8b:15:8b:b7:4a:99:1a:d7:ce:50:a9:c8:62:b4:
                    b9:09:e9:70:eb:cb:0d:77:73:c5:b3:f8:b8:bb:f3:
                    74:1c:9c:c3:cf:62:eb:2c:fb:ae:6a:9c:17:14:ba:
                    5d:b8:21:00:c0:06:57:29:83:10:00:bc:0d:ba:cf:
                    7a:ca:8f:31:48:b2:4b:e0:30:1e:39:7c:44:4c:5b:
                    78:4e:b5:3b:c9:4f:c4:f5:78:88:5b:b5:65:7d:3d:
                    98:f0:20:06:ef:5a:09:cf:7e:e6:87:2e:34:f5:53:
                    df:7a:72:b0:cf:a9:38:ab:72:20:64:ca:cc:02:a9:
                    5e:c7:63:78:5c:32:0c:4d:66:b5:6f:af:f0:98:80:
                    a2:41:89:63:42:1e:5e:24:48:ce:17:12:63:8d:61:
                    7d:e9:c7:11:53:1d:3e:2d:ee:52:ad:e2:0f:76:b5:
                    6e:f5:47:5b:f6:ef:83:9f:ec:27:1a:e4:be:89:b1:
                    b8:ff:a4:ed:d5:87:4a:c5:26:9e:6e:08:f5:45:38:
                    49:fd:79:d0:cb:88:ad:24:3e:c0:6c:c5:fa:7a:5e:
                    09:c0:9d:ad:8e:92:94:5d:2e:19:46:7c:20:1a:76:
                    0c:31
                Exponent: 65537 (0x10001)
        X509v3 extensions:
            X509v3 Extended Key Usage: 
                TLS Web Client Authentication
    Signature Algorithm: sha1WithRSAEncryption
         23:52:79:55:4d:96:2e:7f:fa:58:c7:65:a0:41:6d:4a:b6:ce:
         1c:ff:50:3b:fb:a8:7f:43:da:2d:1f:e2:66:00:9d:73:ed:87:
         bc:c3:1a:af:4d:1a:de:c1:cf:7b:0a:9d:85:43:18:de:8d:be:
         e6:15:99:87:1b:cf:8c:46:cf:6c:fe:6a:1c:0f:9a:2b:e0:b6:
         e1:f8:47:77:ee:9a:b1:9a:ad:98:76:ac:77:29:73:06:4e:97:
         bb:56:1f:55:d4:53:99:c6:3e:e1:aa:ce:47:c6:fd:f5:e0:c0:
         ad:c6:e9:03:b0:48:d5:04:81:e3:0a:f0:cf:f4:da:75:27:ae:
         fd:bc:a8:d1:be:41:4c:b0:02:5a:d7:52:50:4d:e4:80:53:31:
         6b:41:62:95:af:ed:f2:43:d0:45:bd:93:a4:6f:67:af:1f:c0:
         30:e2:cf:10:16:e0:a0:39:70:3c:b3:00:08:af:cf:72:6e:9e:
         a1:cd:8b:c3:9b:25:e3:ce:2f:21:65:56:53:08:c0:24:05:09:
         10:d1:96:81:07:e7:31:c3:5f:f2:9b:df:39:aa:6f:18:a2:fc:
         25:57:17:3c:e9:bf:4e:1f:08:f7:0d:78:7b:d9:98:8d:e0:0a:
         4d:f9:ac:83:f9:dd:fb:f4:0e:26:58:86:2a:2f:15:f0:78:b1:
         25:62:2f:e7
-----BEGIN CERTIFICATE-----
MIIDjjCCAnagAwIBAgIBAjANBgkqhkiG9w0BAQUFADCBkzELMAkGA1UEBhMCRlIx
DzANBgNVBAgTBlJhZGl1czESMBAGA1UEBxMJU29tZXdoZXJlMRUwEwYDVQQKEwxF
eGFtcGxlIEluYy4xIDAeBgkqhkiG9w0BCQEWEWFkbWluQGV4YW1wbGUuY29tMSYw
JAYDVQQDEx1FeGFtcGxlIENlcnRpZmljYXRlIEF1dGhvcml0eTAeFw0xMjA2MjUx
NDU1NDVaFw0xMzA2MjUxNDU1NDVaMGgxCzAJBgNVBAYTAkZSMQ8wDQYDVQQIEwZS
YWRpdXMxFTATBgNVBAoTDEV4YW1wbGUgSW5jLjEQMA4GA1UEAxMHbWF4ZW5jZTEf
MB0GCSqGSIb3DQEJARYQdXNlckBleGFtcGxlLmNvbTCCASIwDQYJKoZIhvcNAQEB
BQADggEPADCCAQoCggEBAKA3YZNE5NsfARWBJe9AzvPi/9336+XOCNSmEd0i2IsV
i7dKmRrXzlCpyGK0uQnpcOvLDXdzxbP4uLvzdBycw89i6yz7rmqcFxS6XbghAMAG
VymDEAC8DbrPesqPMUiyS+AwHjl8RExbeE61O8lPxPV4iFu1ZX09mPAgBu9aCc9+
5ocuNPVT33pysM+pOKtyIGTKzAKpXsdjeFwyDE1mtW+v8JiAokGJY0IeXiRIzhcS
Y41hfenHEVMdPi3uUq3iD3a1bvVHW/bvg5/sJxrkvomxuP+k7dWHSsUmnm4I9UU4
Sf150MuIrSQ+wGzF+npeCcCdrY6SlF0uGUZ8IBp2DDECAwEAAaMXMBUwEwYDVR0l
BAwwCgYIKwYBBQUHAwIwDQYJKoZIhvcNAQEFBQADggEBACNSeVVNli5/+ljHZaBB
bUq2zhz/UDv7qH9D2i0f4mYAnXPth7zDGq9NGt7Bz3sKnYVDGN6NvuYVmYcbz4xG
z2z+ahwPmivgtuH4R3fumrGarZh2rHcpcwZOl7tWH1XUU5nGPuGqzkfG/fXgwK3G
6QOwSNUEgeMK8M/02nUnrv28qNG+QUywAlrXUlBN5IBTMWtBYpWv7fJD0EW9k6Rv
Z68fwDDizxAW4KA5cDyzAAivz3JunqHNi8ObJePOLyFlVlMIwCQFCRDRloEH5zHD
X/Kb3zmqbxii/CVXFzzpv04fCPcNeHvZmI3gCk35rIP53fv0DiZYhiovFfB4sSVi
L+c=
-----END CERTIFICATE-----
